target datalayout = "e-m:e-p270:32:32-p271:32:32-p272:64:64-i64:64-i128:128-f80:128-n8:16:32:64-S128"
target triple = "x86_64-pc-linux-gnu"

@.str.1 = private unnamed_addr constant [101 x i8] c"generated/home/dtcxzyw/WorkSpace/Projects/compilers/llvm-opt-benchmark/bench/hdf5/hdf5/src/H5Plapl.c\00", align 1
@H5E_PLIST_g = external global i64, align 8
@H5E_BADTYPE_g = external global i64, align 8
@H5P_CLS_FILE_ACCESS_ID_g = external global i64, align 8
@__func__.H5P__lacc_elink_fapl_set = private unnamed_addr constant [25 x i8] c"H5P__lacc_elink_fapl_set\00", align 1
@.str.27 = private unnamed_addr constant [24 x i8] c"can't get property list\00", align 1
@H5E_CANTCOPY_g = external global i64, align 8
@.str.28 = private unnamed_addr constant [41 x i8] c"unable to copy file access property list\00", align 1

; Function Attrs: nounwind uwtable
define internal i32 @H5P__lacc_elink_fapl_set(i64 noundef %0, ptr noundef %1, i64 noundef %2, ptr noundef %3) #0 {
  %5 = alloca i64, align 8
  %6 = alloca ptr, align 8
  %7 = alloca i64, align 8
  %8 = alloca ptr, align 8
  %9 = alloca i64, align 8
  %10 = alloca i32, align 4
  %11 = alloca i8, align 1
  %12 = alloca ptr, align 8
  store i64 %0, ptr %5, align 8
  store ptr %1, ptr %6, align 8
  store i64 %2, ptr %7, align 8
  store ptr %3, ptr %8, align 8
  store i32 0, ptr %10, align 4
  store i8 0, ptr %11, align 1
  %13 = load ptr, ptr %8, align 8
  %14 = load i64, ptr %13, align 8
  store i64 %14, ptr %9, align 8
  %15 = load i64, ptr %9, align 8
  %16 = icmp ne i64 %15, 0
  br i1 %16, label %17, label %58

17:                                               ; preds = %4
  %18 = load i64, ptr %9, align 8
  %19 = load i64, ptr @H5P_CLS_FILE_ACCESS_ID_g, align 8
  %20 = call ptr @H5P_object_verify(i64 noundef %18, i64 noundef %19)
  store ptr %20, ptr %12, align 8
  %21 = icmp eq ptr null, %20
  br i1 %21, label %22, label %37

22:                                               ; preds = %17
  br label %23

23:                                               ; preds = %22
  br label %24

24:                                               ; preds = %23
  br label %25

25:                                               ; preds = %24
  %26 = load i64, ptr @H5E_PLIST_g, align 8
  %27 = load i64, ptr @H5E_BADTYPE_g, align 8
  %28 = call i32 (ptr, ptr, i32, i64, i64, ptr, ...) @H5E_printf_stack(ptr noundef @.str.1, ptr noundef @__func__.H5P__lacc_elink_fapl_set, i32 noundef 263, i64 noundef %26, i64 noundef %27, ptr noundef @.str.27)
  br label %29

29:                                               ; preds = %25
  store i8 1, ptr %11, align 1
  %30 = load i8, ptr %11, align 1
  %31 = trunc i8 %30 to i1
  %32 = zext i1 %31 to i8
  store i8 %32, ptr %11, align 1
  br label %33

33:                                               ; preds = %29
  br label %34

34:                                               ; preds = %33
  store i32 -1, ptr %10, align 4
  br label %59

35:                                               ; No predecessors!
  br label %36

36:                                               ; preds = %35
  br label %37

37:                                               ; preds = %36, %17
  %38 = load ptr, ptr %12, align 8
  %39 = call i64 @H5P_copy_plist(ptr noundef %38, i1 noundef zeroext false)
  %40 = load ptr, ptr %8, align 8
  store i64 %39, ptr %40, align 8
  %41 = icmp slt i64 %39, 0
  br i1 %41, label %42, label %57

42:                                               ; preds = %37
  br label %43

43:                                               ; preds = %42
  br label %44

44:                                               ; preds = %43
  br label %45

45:                                               ; preds = %44
  %46 = load i64, ptr @H5E_PLIST_g, align 8
  %47 = load i64, ptr @H5E_CANTCOPY_g, align 8
  %48 = call i32 (ptr, ptr, i32, i64, i64, ptr, ...) @H5E_printf_stack(ptr noundef @.str.1, ptr noundef @__func__.H5P__lacc_elink_fapl_set, i32 noundef 265, i64 noundef %46, i64 noundef %47, ptr noundef @.str.28)
  br label %49

49:                                               ; preds = %45
  store i8 1, ptr %11, align 1
  %50 = load i8, ptr %11, align 1
  %51 = trunc i8 %50 to i1
  %52 = zext i1 %51 to i8
  store i8 %52, ptr %11, align 1
  br label %53

53:                                               ; preds = %49
  br label %54

54:                                               ; preds = %53
  store i32 -1, ptr %10, align 4
  br label %59

55:                                               ; No predecessors!
  br label %56

56:                                               ; preds = %55
  br label %57

57:                                               ; preds = %56, %37
  br label %58

58:                                               ; preds = %57, %4
  br label %59

59:                                               ; preds = %58, %54, %34
  %60 = load i32, ptr %10, align 4
  ret i32 %60
}